target datalayout = "e-m:e-p270:32:32-p271:32:32-p272:64:64-i64:64-i128:128-f80:128-n8:16:32:64-S128"
target triple = "x86_64-pc-linux-gnu"

%struct.test_info = type { ptr, ptr, ptr, i32, i8 }

@all_tests = internal global [1024 x %struct.test_info] zeroinitializer, align 16
@num_tests = internal global i32 0, align 4
@num_test_cases = internal global i32 0, align 4

; Function Attrs: nounwind uwtable
define void @add_test(ptr noundef %0, ptr noundef %1) #0 {
  %3 = alloca ptr, align 8
  %4 = alloca ptr, align 8
  store ptr %0, ptr %3, align 8, !tbaa !3
  store ptr %1, ptr %4, align 8, !tbaa !8
  %5 = load ptr, ptr %3, align 8, !tbaa !3
  %6 = load i32, ptr @num_tests, align 4, !tbaa !9
  %7 = sext i32 %6 to i64
  %8 = getelementptr inbounds [1024 x %struct.test_info], ptr @all_tests, i64 0, i64 %7
  %9 = getelementptr inbounds nuw %struct.test_info, ptr %8, i32 0, i32 0
  store ptr %5, ptr %9, align 16, !tbaa !11
  %10 = load ptr, ptr %4, align 8, !tbaa !8
  %11 = load i32, ptr @num_tests, align 4, !tbaa !9
  %12 = sext i32 %11 to i64
  %13 = getelementptr inbounds [1024 x %struct.test_info], ptr @all_tests, i64 0, i64 %12
  %14 = getelementptr inbounds nuw %struct.test_info, ptr %13, i32 0, i32 1
  store ptr %10, ptr %14, align 8, !tbaa !13
  %15 = load i32, ptr @num_tests, align 4, !tbaa !9
  %16 = sext i32 %15 to i64
  %17 = getelementptr inbounds [1024 x %struct.test_info], ptr @all_tests, i64 0, i64 %16
  %18 = getelementptr inbounds nuw %struct.test_info, ptr %17, i32 0, i32 3
  store i32 -1, ptr %18, align 8, !tbaa !14
  %19 = load i32, ptr @num_tests, align 4, !tbaa !9
  %20 = add nsw i32 %19, 1
  store i32 %20, ptr @num_tests, align 4, !tbaa !9
  %21 = load i32, ptr @num_test_cases, align 4, !tbaa !9
  %22 = add nsw i32 %21, 1
  store i32 %22, ptr @num_test_cases, align 4, !tbaa !9
  ret void
}