; Function Attrs: mustprogress nofree norecurse nosync nounwind willreturn memory(readwrite, argmem: none, inaccessiblemem: none) uwtable
define void @add_test(ptr noundef %0, ptr noundef %1) local_unnamed_addr #0 {
  %3 = load i32, ptr @num_tests, align 4, !tbaa !3
  %4 = sext i32 %3 to i64
  %5 = getelementptr inbounds [1024 x %struct.test_info], ptr @all_tests, i64 0, i64 %4
  store ptr %0, ptr %5, align 16, !tbaa !7
  %6 = getelementptr inbounds [1024 x %struct.test_info], ptr @all_tests, i64 0, i64 %4, i32 1
  store ptr %1, ptr %6, align 8, !tbaa !11
  %7 = getelementptr inbounds [1024 x %struct.test_info], ptr @all_tests, i64 0, i64 %4, i32 3
  store i32 -1, ptr %7, align 8, !tbaa !12
  %8 = add nsw i32 %3, 1
  store i32 %8, ptr @num_tests, align 4, !tbaa !3
  %9 = load i32, ptr @num_test_cases, align 4, !tbaa !3
  %10 = add nsw i32 %9, 1
  store i32 %10, ptr @num_test_cases, align 4, !tbaa !3
  ret void
}